; Function Attrs: mustprogress uwtable
define hidden void @_ZN2cv4usac20HomographyDegeneracy6createERKNS_3MatE(ptr dead_on_unwind noalias nocapture writable writeonly sret(%"struct.cv::Ptr.5") align 8 %0, ptr noundef nonnull align 8 dereferenceable(96) %1) local_unnamed_addr #3 align 2 personality ptr @__gxx_personality_v0 {
_ZN2cv3PtrINS_4usac24HomographyDegeneracyImplEED2Ev.exit:
  %2 = alloca %"class.std::allocator", align 1
  %3 = alloca %"class.std::shared_ptr.10", align 16
  call void @llvm.lifetime.start.p0(i64 16, ptr nonnull %3)
  call void @llvm.lifetime.start.p0(i64 1, ptr nonnull %2), !noalias !23
  store ptr null, ptr %3, align 16, !alias.scope !26, !noalias !23
  %4 = getelementptr inbounds i8, ptr %3, i64 8
  call void @_ZNSt14__shared_countILN9__gnu_cxx12_Lock_policyE2EEC2IN2cv4usac24HomographyDegeneracyImplESaIvEJRKNS4_3MatEEEERPT_St20_Sp_alloc_shared_tagIT0_EDpOT1_(ptr noundef nonnull align 8 dereferenceable(8) %4, ptr noundef nonnull align 8 dereferenceable(8) %3, ptr nonnull %2, ptr noundef nonnull align 8 dereferenceable(96) %1), !noalias !23
  call void @llvm.lifetime.end.p0(i64 1, ptr nonnull %2), !noalias !23
  %5 = load <2 x ptr>, ptr %3, align 16, !noalias !23
  call void @llvm.lifetime.end.p0(i64 16, ptr nonnull %3)
  store <2 x ptr> %5, ptr %0, align 8
  ret void
}